target datalayout = "e-m:e-p270:32:32-p271:32:32-p272:64:64-i64:64-i128:128-f80:128-n8:16:32:64-S128"
target triple = "x86_64-unknown-linux-gnu"

%"class.std::__cxx11::basic_string" = type { %"struct.std::__cxx11::basic_string<char>::_Alloc_hider", i64, %union.anon }
%"struct.std::__cxx11::basic_string<char>::_Alloc_hider" = type { ptr }
%union.anon = type { i64, [8 x i8] }
%"class.Imf_3_2::RgbaInputFile" = type { ptr, ptr, ptr, ptr, %"class.std::__cxx11::basic_string" }

@_ZTVN7Imf_3_213RgbaInputFileE = unnamed_addr constant { [4 x ptr] } { [4 x ptr] [ptr null, ptr @_ZTIN7Imf_3_213RgbaInputFileE, ptr @_ZN7Imf_3_213RgbaInputFileD1Ev, ptr @_ZN7Imf_3_213RgbaInputFileD0Ev] }, align 8
@_ZN7Imf_3_213RgbaInputFile7FromYcaC1ERNS_9InputPartENS_12RgbaChannelsE = hidden unnamed_addr alias void (ptr, ptr, i32), ptr @_ZN7Imf_3_213RgbaInputFile7FromYcaC2ERNS_9InputPartENS_12RgbaChannelsE

; Function Attrs: mustprogress uwtable
define noundef i32 @_ZNK7Imf_3_213RgbaInputFile8channelsEv(ptr noundef nonnull align 8 dereferenceable(64) %this) #4 align 2 {
entry:
  %this.addr = alloca ptr, align 8
  store ptr %this, ptr %this.addr, align 8
  %this1 = load ptr, ptr %this.addr, align 8
  %_inputPart = getelementptr inbounds %"class.Imf_3_2::RgbaInputFile", ptr %this1, i32 0, i32 2
  %0 = load ptr, ptr %_inputPart, align 8
  %call = call noundef nonnull align 8 dereferenceable(49) ptr @_ZNK7Imf_3_29InputPart6headerEv(ptr noundef nonnull align 8 dereferenceable(8) %0)
  %call2 = call noundef nonnull align 8 dereferenceable(48) ptr @_ZNK7Imf_3_26Header8channelsEv(ptr noundef nonnull align 8 dereferenceable(49) %call)
  %_channelNamePrefix = getelementptr inbounds %"class.Imf_3_2::RgbaInputFile", ptr %this1, i32 0, i32 4
  %call3 = call noundef i32 @_ZN7Imf_3_212_GLOBAL__N_112rgbaChannelsERKNS_11ChannelListERKNSt7__cxx1112basic_stringIcSt11char_traitsIcESaIcEEE(ptr noundef nonnull align 8 dereferenceable(48) %call2, ptr noundef nonnull align 8 dereferenceable(32) %_channelNamePrefix)
  ret i32 %call3
}

; Function Attrs: mustprogress uwtable
define void @_ZN7Imf_3_213RgbaInputFileC2EiPKcRKNSt7__cxx1112basic_stringIcSt11char_traitsIcESaIcEEEi(ptr noundef nonnull align 8 dereferenceable(64) %this, i32 noundef %partNumber, ptr noundef %name, ptr noundef nonnull align 8 dereferenceable(32) %layerName, i32 noundef %numThreads) unnamed_addr #4 align 2 personality ptr @__gxx_personality_v0 {
entry:
  %this.addr = alloca ptr, align 8
  %partNumber.addr = alloca i32, align 4
  %name.addr = alloca ptr, align 8
  %layerName.addr = alloca ptr, align 8
  %numThreads.addr = alloca i32, align 4
  %exn.slot = alloca ptr, align 8
  %ehselector.slot = alloca i32, align 4
  %ref.tmp = alloca %"class.std::__cxx11::basic_string", align 8
  %rgbaChannels = alloca i32, align 4
  store ptr %this, ptr %this.addr, align 8
  store i32 %partNumber, ptr %partNumber.addr, align 4
  store ptr %name, ptr %name.addr, align 8
  store ptr %layerName, ptr %layerName.addr, align 8
  store i32 %numThreads, ptr %numThreads.addr, align 4
  %this1 = load ptr, ptr %this.addr, align 8
  store ptr getelementptr inbounds ({ [4 x ptr] }, ptr @_ZTVN7Imf_3_213RgbaInputFileE, i32 0, i32 0, i32 2), ptr %this1, align 8
  %_multiPartFile = getelementptr inbounds %"class.Imf_3_2::RgbaInputFile", ptr %this1, i32 0, i32 1
  %call = call noalias noundef nonnull ptr @_Znwm(i64 noundef 16) #13
  %0 = load ptr, ptr %name.addr, align 8
  %1 = load i32, ptr %numThreads.addr, align 4
  invoke void @_ZN7Imf_3_218MultiPartInputFileC1EPKcib(ptr noundef nonnull align 8 dereferenceable(16) %call, ptr noundef %0, i32 noundef %1, i1 noundef zeroext true)
          to label %invoke.cont unwind label %lpad

invoke.cont:                                      ; preds = %entry
  store ptr %call, ptr %_multiPartFile, align 8
  %_inputPart = getelementptr inbounds %"class.Imf_3_2::RgbaInputFile", ptr %this1, i32 0, i32 2
  store ptr null, ptr %_inputPart, align 8
  %_fromYca = getelementptr inbounds %"class.Imf_3_2::RgbaInputFile", ptr %this1, i32 0, i32 3
  store ptr null, ptr %_fromYca, align 8
  %_channelNamePrefix = getelementptr inbounds %"class.Imf_3_2::RgbaInputFile", ptr %this1, i32 0, i32 4
  call void @_ZNSt7__cxx1112basic_stringIcSt11char_traitsIcESaIcEEC1Ev(ptr noundef nonnull align 8 dereferenceable(32) %_channelNamePrefix) #3
  %call4 = invoke noalias noundef nonnull ptr @_Znwm(i64 noundef 8) #13
          to label %invoke.cont3 unwind label %lpad2

invoke.cont3:                                     ; preds = %invoke.cont
  %_multiPartFile5 = getelementptr inbounds %"class.Imf_3_2::RgbaInputFile", ptr %this1, i32 0, i32 1
  %2 = load ptr, ptr %_multiPartFile5, align 8
  %3 = load i32, ptr %partNumber.addr, align 4
  invoke void @_ZN7Imf_3_29InputPartC1ERNS_18MultiPartInputFileEi(ptr noundef nonnull align 8 dereferenceable(8) %call4, ptr noundef nonnull align 8 dereferenceable(16) %2, i32 noundef %3)
          to label %invoke.cont7 unwind label %lpad6

invoke.cont7:                                     ; preds = %invoke.cont3
  %_inputPart8 = getelementptr inbounds %"class.Imf_3_2::RgbaInputFile", ptr %this1, i32 0, i32 2
  store ptr %call4, ptr %_inputPart8, align 8
  %4 = load ptr, ptr %layerName.addr, align 8
  %_inputPart9 = getelementptr inbounds %"class.Imf_3_2::RgbaInputFile", ptr %this1, i32 0, i32 2
  %5 = load ptr, ptr %_inputPart9, align 8
  %call11 = invoke noundef nonnull align 8 dereferenceable(49) ptr @_ZNK7Imf_3_29InputPart6headerEv(ptr noundef nonnull align 8 dereferenceable(8) %5)
          to label %invoke.cont10 unwind label %lpad2

invoke.cont10:                                    ; preds = %invoke.cont7
  invoke void @_ZN7Imf_3_212_GLOBAL__N_119prefixFromLayerNameERKNSt7__cxx1112basic_stringIcSt11char_traitsIcESaIcEEERKNS_6HeaderE(ptr sret(%"class.std::__cxx11::basic_string") align 8 %ref.tmp, ptr noundef nonnull align 8 dereferenceable(32) %4, ptr noundef nonnull align 8 dereferenceable(49) %call11)
          to label %invoke.cont12 unwind label %lpad2

invoke.cont12:                                    ; preds = %invoke.cont10
  %_channelNamePrefix13 = getelementptr inbounds %"class.Imf_3_2::RgbaInputFile", ptr %this1, i32 0, i32 4
  %call14 = call noundef nonnull align 8 dereferenceable(32) ptr @_ZNSt7__cxx1112basic_stringIcSt11char_traitsIcESaIcEEaSEOS4_(ptr noundef nonnull align 8 dereferenceable(32) %_channelNamePrefix13, ptr noundef nonnull align 8 dereferenceable(32) %ref.tmp) #3
  call void @_ZNSt7__cxx1112basic_stringIcSt11char_traitsIcESaIcEED1Ev(ptr noundef nonnull align 8 dereferenceable(32) %ref.tmp) #3
  %call16 = invoke noundef i32 @_ZNK7Imf_3_213RgbaInputFile8channelsEv(ptr noundef nonnull align 8 dereferenceable(64) %this1)
          to label %invoke.cont15 unwind label %lpad2

invoke.cont15:                                    ; preds = %invoke.cont12
  store i32 %call16, ptr %rgbaChannels, align 4
  %6 = load i32, ptr %rgbaChannels, align 4
  %and = and i32 %6, 32
  %tobool = icmp ne i32 %and, 0
  br i1 %tobool, label %if.then, label %if.end

if.then:                                          ; preds = %invoke.cont15
  %call18 = invoke noalias noundef nonnull ptr @_Znwm(i64 noundef 392) #13
          to label %invoke.cont17 unwind label %lpad2

invoke.cont17:                                    ; preds = %if.then
  %_inputPart19 = getelementptr inbounds %"class.Imf_3_2::RgbaInputFile", ptr %this1, i32 0, i32 2
  %7 = load ptr, ptr %_inputPart19, align 8
  %8 = load i32, ptr %rgbaChannels, align 4
  invoke void @_ZN7Imf_3_213RgbaInputFile7FromYcaC1ERNS_9InputPartENS_12RgbaChannelsE(ptr noundef nonnull align 8 dereferenceable(392) %call18, ptr noundef nonnull align 8 dereferenceable(8) %7, i32 noundef %8)
          to label %invoke.cont21 unwind label %lpad20

invoke.cont21:                                    ; preds = %invoke.cont17
  %_fromYca22 = getelementptr inbounds %"class.Imf_3_2::RgbaInputFile", ptr %this1, i32 0, i32 3
  store ptr %call18, ptr %_fromYca22, align 8
  br label %if.end

lpad:                                             ; preds = %entry
  %9 = landingpad { ptr, i32 }
          cleanup
  %10 = extractvalue { ptr, i32 } %9, 0
  store ptr %10, ptr %exn.slot, align 8
  %11 = extractvalue { ptr, i32 } %9, 1
  store i32 %11, ptr %ehselector.slot, align 4
  call void @_ZdlPv(ptr noundef %call) #14
  br label %eh.resume

lpad2:                                            ; preds = %if.then, %invoke.cont12, %invoke.cont10, %invoke.cont7, %invoke.cont
  %12 = landingpad { ptr, i32 }
          catch ptr null
  %13 = extractvalue { ptr, i32 } %12, 0
  store ptr %13, ptr %exn.slot, align 8
  %14 = extractvalue { ptr, i32 } %12, 1
  store i32 %14, ptr %ehselector.slot, align 4
  br label %catch

lpad6:                                            ; preds = %invoke.cont3
  %15 = landingpad { ptr, i32 }
          catch ptr null
  %16 = extractvalue { ptr, i32 } %15, 0
  store ptr %16, ptr %exn.slot, align 8
  %17 = extractvalue { ptr, i32 } %15, 1
  store i32 %17, ptr %ehselector.slot, align 4
  call void @_ZdlPv(ptr noundef %call4) #14
  br label %catch

lpad20:                                           ; preds = %invoke.cont17
  %18 = landingpad { ptr, i32 }
          catch ptr null
  %19 = extractvalue { ptr, i32 } %18, 0
  store ptr %19, ptr %exn.slot, align 8
  %20 = extractvalue { ptr, i32 } %18, 1
  store i32 %20, ptr %ehselector.slot, align 4
  call void @_ZdlPv(ptr noundef %call18) #14
  br label %catch

catch:                                            ; preds = %lpad20, %lpad6, %lpad2
  %exn = load ptr, ptr %exn.slot, align 8
  %21 = call ptr @__cxa_begin_catch(ptr %exn) #3
  %_inputPart23 = getelementptr inbounds %"class.Imf_3_2::RgbaInputFile", ptr %this1, i32 0, i32 2
  %22 = load ptr, ptr %_inputPart23, align 8
  %tobool24 = icmp ne ptr %22, null
  br i1 %tobool24, label %if.then25, label %if.end27

if.then25:                                        ; preds = %catch
  %_inputPart26 = getelementptr inbounds %"class.Imf_3_2::RgbaInputFile", ptr %this1, i32 0, i32 2
  %23 = load ptr, ptr %_inputPart26, align 8
  %isnull = icmp eq ptr %23, null
  br i1 %isnull, label %delete.end, label %delete.notnull

delete.notnull:                                   ; preds = %if.then25
  call void @_ZdlPv(ptr noundef %23) #14
  br label %delete.end

delete.end:                                       ; preds = %delete.notnull, %if.then25
  br label %if.end27

if.end:                                           ; preds = %invoke.cont21, %invoke.cont15
  br label %try.cont

if.end27:                                         ; preds = %delete.end, %catch
  %_multiPartFile28 = getelementptr inbounds %"class.Imf_3_2::RgbaInputFile", ptr %this1, i32 0, i32 1
  %24 = load ptr, ptr %_multiPartFile28, align 8
  %isnull29 = icmp eq ptr %24, null
  br i1 %isnull29, label %delete.end31, label %delete.notnull30

delete.notnull30:                                 ; preds = %if.end27
  %vtable = load ptr, ptr %24, align 8
  %vfn = getelementptr inbounds ptr, ptr %vtable, i64 1
  %25 = load ptr, ptr %vfn, align 8
  call void %25(ptr noundef nonnull align 8 dereferenceable(16) %24) #3
  br label %delete.end31

delete.end31:                                     ; preds = %delete.notnull30, %if.end27
  invoke void @__cxa_rethrow() #15
          to label %unreachable unwind label %lpad32

lpad32:                                           ; preds = %delete.end31
  %26 = landingpad { ptr, i32 }
          cleanup
  %27 = extractvalue { ptr, i32 } %26, 0
  store ptr %27, ptr %exn.slot, align 8
  %28 = extractvalue { ptr, i32 } %26, 1
  store i32 %28, ptr %ehselector.slot, align 4
  invoke void @__cxa_end_catch()
          to label %invoke.cont33 unwind label %terminate.lpad

invoke.cont33:                                    ; preds = %lpad32
  call void @_ZNSt7__cxx1112basic_stringIcSt11char_traitsIcESaIcEED1Ev(ptr noundef nonnull align 8 dereferenceable(32) %_channelNamePrefix) #3
  br label %eh.resume

try.cont:                                         ; preds = %if.end
  ret void

eh.resume:                                        ; preds = %invoke.cont33, %lpad
  %exn34 = load ptr, ptr %exn.slot, align 8
  %sel = load i32, ptr %ehselector.slot, align 4
  %lpad.val = insertvalue { ptr, i32 } poison, ptr %exn34, 0
  %lpad.val35 = insertvalue { ptr, i32 } %lpad.val, i32 %sel, 1
  resume { ptr, i32 } %lpad.val35

terminate.lpad:                                   ; preds = %lpad32
  %29 = landingpad { ptr, i32 }
          catch ptr null
  %30 = extractvalue { ptr, i32 } %29, 0
  call void @__clang_call_terminate(ptr %30) #16
  unreachable

unreachable:                                      ; preds = %delete.end31
  unreachable
}