; Function Attrs: mustprogress uwtable
define void @_ZN7Imf_3_213RgbaInputFileC2EiPKcRKNSt7__cxx1112basic_stringIcSt11char_traitsIcESaIcEEEi(ptr noundef nonnull align 8 dereferenceable(64) %this, i32 noundef %partNumber, ptr noundef %name, ptr noundef nonnull align 8 dereferenceable(32) %layerName, i32 noundef %numThreads) unnamed_addr #3 align 2 personality ptr @__gxx_personality_v0 {
entry:
  %ref.tmp = alloca %"class.std::__cxx11::basic_string", align 8
  store ptr getelementptr inbounds ({ [4 x ptr] }, ptr @_ZTVN7Imf_3_213RgbaInputFileE, i64 0, i32 0, i64 2), ptr %this, align 8
  %_multiPartFile = getelementptr inbounds i8, ptr %this, i64 8
  %call = tail call noalias noundef nonnull dereferenceable(16) ptr @_Znwm(i64 noundef 16) #23
  invoke void @_ZN7Imf_3_218MultiPartInputFileC1EPKcib(ptr noundef nonnull align 8 dereferenceable(16) %call, ptr noundef %name, i32 noundef %numThreads, i1 noundef zeroext true)
          to label %invoke.cont unwind label %lpad

invoke.cont:                                      ; preds = %entry
  store ptr %call, ptr %_multiPartFile, align 8
  %_inputPart = getelementptr inbounds i8, ptr %this, i64 16
  %_fromYca = getelementptr inbounds i8, ptr %this, i64 24
  %_channelNamePrefix = getelementptr inbounds i8, ptr %this, i64 32
  tail call void @llvm.memset.p0.i64(ptr noundef nonnull align 8 dereferenceable(16) %_inputPart, i8 0, i64 16, i1 false)
  tail call void @_ZNSt7__cxx1112basic_stringIcSt11char_traitsIcESaIcEEC1Ev(ptr noundef nonnull align 8 dereferenceable(32) %_channelNamePrefix) #25
  %call4 = invoke noalias noundef nonnull dereferenceable(8) ptr @_Znwm(i64 noundef 8) #23
          to label %invoke.cont3 unwind label %lpad2

invoke.cont3:                                     ; preds = %invoke.cont
  %0 = load ptr, ptr %_multiPartFile, align 8
  invoke void @_ZN7Imf_3_29InputPartC1ERNS_18MultiPartInputFileEi(ptr noundef nonnull align 8 dereferenceable(8) %call4, ptr noundef nonnull align 8 dereferenceable(16) %0, i32 noundef %partNumber)
          to label %invoke.cont7 unwind label %lpad6

invoke.cont7:                                     ; preds = %invoke.cont3
  store ptr %call4, ptr %_inputPart, align 8
  %call11 = invoke noundef nonnull align 8 dereferenceable(49) ptr @_ZNK7Imf_3_29InputPart6headerEv(ptr noundef nonnull align 8 dereferenceable(8) %call4)
          to label %invoke.cont10 unwind label %lpad2

invoke.cont10:                                    ; preds = %invoke.cont7
  invoke fastcc void @_ZN7Imf_3_212_GLOBAL__N_119prefixFromLayerNameERKNSt7__cxx1112basic_stringIcSt11char_traitsIcESaIcEEERKNS_6HeaderE(ptr noalias nonnull align 8 %ref.tmp, ptr noundef nonnull align 8 dereferenceable(32) %layerName, ptr noundef nonnull align 8 dereferenceable(49) %call11)
          to label %invoke.cont12 unwind label %lpad2

invoke.cont12:                                    ; preds = %invoke.cont10
  %call14 = call noundef nonnull align 8 dereferenceable(32) ptr @_ZNSt7__cxx1112basic_stringIcSt11char_traitsIcESaIcEEaSEOS4_(ptr noundef nonnull align 8 dereferenceable(32) %_channelNamePrefix, ptr noundef nonnull align 8 dereferenceable(32) %ref.tmp) #25
  call void @_ZNSt7__cxx1112basic_stringIcSt11char_traitsIcESaIcEED1Ev(ptr noundef nonnull align 8 dereferenceable(32) %ref.tmp) #25
  %1 = load ptr, ptr %_inputPart, align 8
  %call.i5 = invoke noundef nonnull align 8 dereferenceable(49) ptr @_ZNK7Imf_3_29InputPart6headerEv(ptr noundef nonnull align 8 dereferenceable(8) %1)
          to label %call.i.noexc unwind label %lpad2

call.i.noexc:                                     ; preds = %invoke.cont12
  %call2.i6 = invoke noundef nonnull align 8 dereferenceable(48) ptr @_ZNK7Imf_3_26Header8channelsEv(ptr noundef nonnull align 8 dereferenceable(49) %call.i5)
          to label %call2.i.noexc unwind label %lpad2

call2.i.noexc:                                    ; preds = %call.i.noexc
  %call3.i7 = invoke fastcc noundef i32 @_ZN7Imf_3_212_GLOBAL__N_112rgbaChannelsERKNS_11ChannelListERKNSt7__cxx1112basic_stringIcSt11char_traitsIcESaIcEEE(ptr noundef nonnull align 8 dereferenceable(48) %call2.i6, ptr noundef nonnull align 8 dereferenceable(32) %_channelNamePrefix)
          to label %invoke.cont15 unwind label %lpad2

invoke.cont15:                                    ; preds = %call2.i.noexc
  %tobool.not = icmp ult i32 %call3.i7, 32
  br i1 %tobool.not, label %try.cont, label %if.then

if.then:                                          ; preds = %invoke.cont15
  %call18 = invoke noalias noundef nonnull dereferenceable(392) ptr @_Znwm(i64 noundef 392) #23
          to label %invoke.cont17 unwind label %lpad2

invoke.cont17:                                    ; preds = %if.then
  %2 = load ptr, ptr %_inputPart, align 8
  invoke void @_ZN7Imf_3_213RgbaInputFile7FromYcaC2ERNS_9InputPartENS_12RgbaChannelsE(ptr noundef nonnull align 8 dereferenceable(392) %call18, ptr noundef nonnull align 8 dereferenceable(8) %2, i32 noundef %call3.i7)
          to label %invoke.cont21 unwind label %lpad20

invoke.cont21:                                    ; preds = %invoke.cont17
  store ptr %call18, ptr %_fromYca, align 8
  br label %try.cont

lpad:                                             ; preds = %entry
  %3 = landingpad { ptr, i32 }
          cleanup
  tail call void @_ZdlPv(ptr noundef nonnull %call) #24
  br label %eh.resume

lpad2:                                            ; preds = %call2.i.noexc, %call.i.noexc, %invoke.cont12, %if.then, %invoke.cont10, %invoke.cont7, %invoke.cont
  %4 = landingpad { ptr, i32 }
          catch ptr null
  br label %catch

lpad6:                                            ; preds = %invoke.cont3
  %5 = landingpad { ptr, i32 }
          catch ptr null
  tail call void @_ZdlPv(ptr noundef nonnull %call4) #24
  br label %catch

lpad20:                                           ; preds = %invoke.cont17
  %6 = landingpad { ptr, i32 }
          catch ptr null
  call void @_ZdlPv(ptr noundef nonnull %call18) #24
  br label %catch

catch:                                            ; preds = %lpad20, %lpad6, %lpad2
  %.pn = phi { ptr, i32 } [ %6, %lpad20 ], [ %4, %lpad2 ], [ %5, %lpad6 ]
  %exn.slot.0 = extractvalue { ptr, i32 } %.pn, 0
  %7 = call ptr @__cxa_begin_catch(ptr %exn.slot.0) #25
  %8 = load ptr, ptr %_inputPart, align 8
  %tobool24.not = icmp eq ptr %8, null
  br i1 %tobool24.not, label %if.end27, label %delete.notnull

delete.notnull:                                   ; preds = %catch
  call void @_ZdlPv(ptr noundef nonnull %8) #24
  br label %if.end27

if.end27:                                         ; preds = %delete.notnull, %catch
  %9 = load ptr, ptr %_multiPartFile, align 8
  %isnull29 = icmp eq ptr %9, null
  br i1 %isnull29, label %delete.end31, label %delete.notnull30

delete.notnull30:                                 ; preds = %if.end27
  %vtable = load ptr, ptr %9, align 8
  %vfn = getelementptr inbounds i8, ptr %vtable, i64 8
  %10 = load ptr, ptr %vfn, align 8
  call void %10(ptr noundef nonnull align 8 dereferenceable(16) %9) #25
  br label %delete.end31

delete.end31:                                     ; preds = %delete.notnull30, %if.end27
  invoke void @__cxa_rethrow() #27
          to label %unreachable unwind label %lpad32

lpad32:                                           ; preds = %delete.end31
  %11 = landingpad { ptr, i32 }
          cleanup
  invoke void @__cxa_end_catch()
          to label %invoke.cont33 unwind label %terminate.lpad

invoke.cont33:                                    ; preds = %lpad32
  call void @_ZNSt7__cxx1112basic_stringIcSt11char_traitsIcESaIcEED1Ev(ptr noundef nonnull align 8 dereferenceable(32) %_channelNamePrefix) #25
  br label %eh.resume

try.cont:                                         ; preds = %invoke.cont15, %invoke.cont21
  ret void

eh.resume:                                        ; preds = %invoke.cont33, %lpad
  %.pn3 = phi { ptr, i32 } [ %11, %invoke.cont33 ], [ %3, %lpad ]
  resume { ptr, i32 } %.pn3

terminate.lpad:                                   ; preds = %lpad32
  %12 = landingpad { ptr, i32 }
          catch ptr null
  %13 = extractvalue { ptr, i32 } %12, 0
  call void @__clang_call_terminate(ptr %13) #26
  unreachable

unreachable:                                      ; preds = %delete.end31
  unreachable
}